target datalayout = "e-m:e-p270:32:32-p271:32:32-p272:64:64-i64:64-i128:128-f80:128-n8:16:32:64-S128"
target triple = "x86_64-pc-linux-gnu"

%struct.Vec_Int_t_ = type { i32, i32, ptr }

@.str.2 = private unnamed_addr constant [34 x i8] c"Collected %d outputs to extract.\0A\00", align 1

; Function Attrs: inlinehint nounwind uwtable
define internal void @Vec_IntFree(ptr noundef %0) #2 {
  %2 = alloca ptr, align 8
  store ptr %0, ptr %2, align 8, !tbaa !33
  %3 = load ptr, ptr %2, align 8, !tbaa !33
  %4 = getelementptr inbounds nuw %struct.Vec_Int_t_, ptr %3, i32 0, i32 2
  %5 = load ptr, ptr %4, align 8, !tbaa !44
  %6 = icmp ne ptr %5, null
  br i1 %6, label %7, label %13

7:                                                ; preds = %1
  %8 = load ptr, ptr %2, align 8, !tbaa !33
  %9 = getelementptr inbounds nuw %struct.Vec_Int_t_, ptr %8, i32 0, i32 2
  %10 = load ptr, ptr %9, align 8, !tbaa !44
  call void @free(ptr noundef %10) #12
  %11 = load ptr, ptr %2, align 8, !tbaa !33
  %12 = getelementptr inbounds nuw %struct.Vec_Int_t_, ptr %11, i32 0, i32 2
  store ptr null, ptr %12, align 8, !tbaa !44
  br label %14

13:                                               ; preds = %1
  br label %14

14:                                               ; preds = %13, %7
  %15 = load ptr, ptr %2, align 8, !tbaa !33
  %16 = icmp ne ptr %15, null
  br i1 %16, label %17, label %19

17:                                               ; preds = %14
  %18 = load ptr, ptr %2, align 8, !tbaa !33
  call void @free(ptr noundef %18) #12
  store ptr null, ptr %2, align 8, !tbaa !33
  br label %20

19:                                               ; preds = %14
  br label %20

20:                                               ; preds = %19, %17
  ret void
}

; Function Attrs: inlinehint nounwind uwtable
define internal i32 @Vec_IntSize(ptr noundef %0) #2 {
  %2 = alloca ptr, align 8
  store ptr %0, ptr %2, align 8, !tbaa !33
  %3 = load ptr, ptr %2, align 8, !tbaa !33
  %4 = getelementptr inbounds nuw %struct.Vec_Int_t_, ptr %3, i32 0, i32 1
  %5 = load i32, ptr %4, align 4, !tbaa !42
  ret i32 %5
}

; Function Attrs: nounwind uwtable
define ptr @Gia_ManPerformDsdBalanceWin(ptr noundef %0, i32 noundef %1, i32 noundef %2, i32 noundef %3, i32 noundef %4, i32 noundef %5, i32 noundef %6) #0 {
  %8 = alloca ptr, align 8
  %9 = alloca ptr, align 8
  %10 = alloca i32, align 4
  %11 = alloca i32, align 4
  %12 = alloca i32, align 4
  %13 = alloca i32, align 4
  %14 = alloca i32, align 4
  %15 = alloca i32, align 4
  %16 = alloca ptr, align 8
  %17 = alloca ptr, align 8
  %18 = alloca ptr, align 8
  %19 = alloca ptr, align 8
  %20 = alloca i32, align 4
  store ptr %0, ptr %9, align 8, !tbaa !3
  store i32 %1, ptr %10, align 4, !tbaa !8
  store i32 %2, ptr %11, align 4, !tbaa !8
  store i32 %3, ptr %12, align 4, !tbaa !8
  store i32 %4, ptr %13, align 4, !tbaa !8
  store i32 %5, ptr %14, align 4, !tbaa !8
  store i32 %6, ptr %15, align 4, !tbaa !8
  call void @llvm.lifetime.start.p0(i64 8, ptr %16) #12
  call void @llvm.lifetime.start.p0(i64 8, ptr %17) #12
  call void @llvm.lifetime.start.p0(i64 8, ptr %18) #12
  call void @llvm.lifetime.start.p0(i64 8, ptr %19) #12
  %21 = load ptr, ptr %9, align 8, !tbaa !3
  %22 = load i32, ptr %10, align 4, !tbaa !8
  %23 = load i32, ptr %11, align 4, !tbaa !8
  %24 = call ptr @Gia_ManFindLatest(ptr noundef %21, i32 noundef %22, i32 noundef %23)
  store ptr %24, ptr %16, align 8, !tbaa !33
  %25 = load i32, ptr %15, align 4, !tbaa !8
  %26 = icmp ne i32 %25, 0
  br i1 %26, label %27, label %31

27:                                               ; preds = %7
  %28 = load ptr, ptr %16, align 8, !tbaa !33
  %29 = call i32 @Vec_IntSize(ptr noundef %28)
  %30 = call i32 (ptr, ...) @printf(ptr noundef @.str.2, i32 noundef %29)
  br label %31

31:                                               ; preds = %27, %7
  %32 = load ptr, ptr %16, align 8, !tbaa !33
  %33 = call i32 @Vec_IntSize(ptr noundef %32)
  %34 = icmp eq i32 %33, 0
  br i1 %34, label %35, label %39

35:                                               ; preds = %31
  %36 = load ptr, ptr %16, align 8, !tbaa !33
  call void @Vec_IntFree(ptr noundef %36)
  %37 = load ptr, ptr %9, align 8, !tbaa !3
  %38 = call ptr @Gia_ManDup(ptr noundef %37)
  store ptr %38, ptr %8, align 8
  store i32 1, ptr %20, align 4
  br label %57

39:                                               ; preds = %31
  %40 = load ptr, ptr %9, align 8, !tbaa !3
  %41 = load ptr, ptr %16, align 8, !tbaa !33
  %42 = call ptr @Gia_ManExtractWin(ptr noundef %40, ptr noundef %41, i32 noundef 0)
  store ptr %42, ptr %18, align 8, !tbaa !3
  %43 = load ptr, ptr %18, align 8, !tbaa !3
  %44 = load i32, ptr %12, align 4, !tbaa !8
  %45 = load i32, ptr %13, align 4, !tbaa !8
  %46 = load i32, ptr %14, align 4, !tbaa !8
  %47 = load i32, ptr %15, align 4, !tbaa !8
  %48 = call ptr @Gia_ManPerformDsdBalance(ptr noundef %43, i32 noundef %44, i32 noundef %45, i32 noundef %46, i32 noundef %47)
  store ptr %48, ptr %19, align 8, !tbaa !3
  %49 = load ptr, ptr %18, align 8, !tbaa !3
  call void @Gia_ManStop(ptr noundef %49)
  %50 = load ptr, ptr %9, align 8, !tbaa !3
  %51 = load ptr, ptr %16, align 8, !tbaa !33
  %52 = load ptr, ptr %19, align 8, !tbaa !3
  %53 = call ptr @Gia_ManInsertWin(ptr noundef %50, ptr noundef %51, ptr noundef %52)
  store ptr %53, ptr %17, align 8, !tbaa !3
  %54 = load ptr, ptr %19, align 8, !tbaa !3
  call void @Gia_ManStop(ptr noundef %54)
  %55 = load ptr, ptr %16, align 8, !tbaa !33
  call void @Vec_IntFree(ptr noundef %55)
  %56 = load ptr, ptr %17, align 8, !tbaa !3
  store ptr %56, ptr %8, align 8
  store i32 1, ptr %20, align 4
  br label %57

57:                                               ; preds = %39, %35
  call void @llvm.lifetime.end.p0(i64 8, ptr %19) #12
  call void @llvm.lifetime.end.p0(i64 8, ptr %18) #12
  call void @llvm.lifetime.end.p0(i64 8, ptr %17) #12
  call void @llvm.lifetime.end.p0(i64 8, ptr %16) #12
  %58 = load ptr, ptr %8, align 8
  ret ptr %58
}