; Function Attrs: nounwind uwtable
define ptr @Gia_ManPerformDsdBalanceWin(ptr noundef %0, i32 noundef %1, i32 noundef %2, i32 noundef %3, i32 noundef %4, i32 noundef %5, i32 noundef %6) local_unnamed_addr #2 {
  %8 = tail call ptr @Gia_ManFindLatest(ptr noundef %0, i32 noundef %1, i32 noundef %2)
  %.not = icmp eq i32 %6, 0
  %.phi.trans.insert = getelementptr i8, ptr %8, i64 4
  %.val.pre = load i32, ptr %.phi.trans.insert, align 4, !tbaa !31
  br i1 %.not, label %._crit_edge, label %9

9:                                                ; preds = %7
  %10 = tail call i32 (ptr, ...) @printf(ptr noundef nonnull dereferenceable(1) @.str.2, i32 noundef %.val.pre)
  br label %._crit_edge

._crit_edge:                                      ; preds = %7, %9
  %11 = icmp eq i32 %.val.pre, 0
  br i1 %11, label %12, label %17

12:                                               ; preds = %._crit_edge
  %13 = getelementptr inbounds nuw i8, ptr %8, i64 8
  %14 = load ptr, ptr %13, align 8, !tbaa !33
  %.not.i = icmp eq ptr %14, null
  br i1 %.not.i, label %Vec_IntFree.exit, label %15

15:                                               ; preds = %12
  tail call void @free(ptr noundef nonnull %14) #17
  br label %Vec_IntFree.exit

Vec_IntFree.exit:                                 ; preds = %12, %15
  tail call void @free(ptr noundef nonnull %8) #17
  %16 = tail call ptr @Gia_ManDup(ptr noundef %0) #17
  br label %24

17:                                               ; preds = %._crit_edge
  %18 = tail call ptr @Gia_ManExtractWin(ptr noundef %0, ptr noundef nonnull %8, i32 noundef 0)
  %19 = tail call ptr @Gia_ManPerformDsdBalance(ptr noundef %18, i32 noundef %3, i32 noundef %4, i32 noundef %5, i32 noundef %6) #17
  tail call void @Gia_ManStop(ptr noundef %18) #17
  %20 = tail call ptr @Gia_ManInsertWin(ptr noundef %0, ptr noundef nonnull %8, ptr noundef %19)
  tail call void @Gia_ManStop(ptr noundef %19) #17
  %21 = getelementptr inbounds nuw i8, ptr %8, i64 8
  %22 = load ptr, ptr %21, align 8, !tbaa !33
  %.not.i23 = icmp eq ptr %22, null
  br i1 %.not.i23, label %Vec_IntFree.exit24, label %23

23:                                               ; preds = %17
  tail call void @free(ptr noundef nonnull %22) #17
  br label %Vec_IntFree.exit24

Vec_IntFree.exit24:                               ; preds = %17, %23
  tail call void @free(ptr noundef nonnull %8) #17
  br label %24

24:                                               ; preds = %Vec_IntFree.exit24, %Vec_IntFree.exit
  %.0 = phi ptr [ %16, %Vec_IntFree.exit ], [ %20, %Vec_IntFree.exit24 ]
  ret ptr %.0
}